target datalayout = "e-m:e-p270:32:32-p271:32:32-p272:64:64-i64:64-i128:128-f80:128-n8:16:32:64-S128"
target triple = "x86_64-pc-linux-gnu"

%struct.DdManager = type { %struct.DdNode, ptr, ptr, ptr, ptr, ptr, ptr, ptr, i32, i32, double, double, double, i32, i32, i32, i32, i32, i32, ptr, ptr, %struct.DdSubtable, i32, i32, i32, i32, i32, i32, i32, double, i32, i32, i32, ptr, i64, double, i32, ptr, ptr, ptr, ptr, ptr, ptr, ptr, i32, ptr, ptr, ptr, ptr, ptr, ptr, i32, i32, i32, double, i32, i32, i32, i32, double, double, i32, i32, i32, i32, i32, i32, i32, i32, i32, ptr, ptr, i32, i32, i32, i32, i32, i32, ptr, ptr, ptr, ptr, ptr, ptr, ptr, ptr, i32, i64, i64, i64, i32, i64, i64, double, double, double, double, double, double, i32, ptr, ptr, i64 }
%struct.DdNode = type { i32, i32, ptr, %union.anon, i64 }
%union.anon = type { %struct.DdChildren }
%struct.DdChildren = type { ptr, ptr }
%struct.DdSubtable = type { ptr, i32, i32, i32, i32, i32, i32, i32, i32, i32, i32, i32 }
%struct.DdHashTable = type { i32, i32, ptr, ptr, ptr, i32, i32, i32, i32, ptr }
%struct.DdHashItem = type { ptr, i64, ptr, [1 x ptr] }

@Extra_UtilMMoutOfMemory = external global ptr, align 8

; Function Attrs: inlinehint nounwind uwtable
define internal ptr @cuddHashTableAlloc(ptr noundef %0) #7 {
  %2 = alloca ptr, align 8
  %3 = alloca ptr, align 8
  %4 = alloca i32, align 4
  %5 = alloca i32, align 4
  %6 = alloca ptr, align 8
  %7 = alloca ptr, align 8
  %8 = alloca ptr, align 8
  %9 = alloca ptr, align 8
  %10 = alloca ptr, align 8
  %11 = alloca i32, align 4
  store ptr %0, ptr %3, align 8, !tbaa !62
  call void @llvm.lifetime.start.p0(i64 4, ptr %4) #10
  call void @llvm.lifetime.start.p0(i64 4, ptr %5) #10
  %12 = load ptr, ptr %3, align 8, !tbaa !62
  %13 = getelementptr inbounds nuw %struct.DdHashTable, ptr %12, i32 0, i32 1
  %14 = load i32, ptr %13, align 4, !tbaa !71
  store i32 %14, ptr %5, align 4, !tbaa !8
  call void @llvm.lifetime.start.p0(i64 8, ptr %6) #10
  call void @llvm.lifetime.start.p0(i64 8, ptr %7) #10
  call void @llvm.lifetime.start.p0(i64 8, ptr %8) #10
  call void @llvm.lifetime.start.p0(i64 8, ptr %9) #10
  call void @llvm.lifetime.start.p0(i64 8, ptr %10) #10
  %15 = load ptr, ptr %3, align 8, !tbaa !62
  %16 = getelementptr inbounds nuw %struct.DdHashTable, ptr %15, i32 0, i32 3
  %17 = load ptr, ptr %16, align 8, !tbaa !70
  %18 = icmp eq ptr %17, null
  br i1 %18, label %19, label %172

19:                                               ; preds = %1
  %20 = load ptr, ptr @Extra_UtilMMoutOfMemory, align 8, !tbaa !56
  store ptr %20, ptr %6, align 8, !tbaa !56
  store ptr @Cudd_OutOfMem, ptr @Extra_UtilMMoutOfMemory, align 8, !tbaa !56
  %21 = load i32, ptr %5, align 4, !tbaa !8
  %22 = mul i32 1023, %21
  %23 = zext i32 %22 to i64
  %24 = mul i64 1, %23
  %25 = call noalias ptr @malloc(i64 noundef %24) #11
  store ptr %25, ptr %7, align 8, !tbaa !83
  %26 = load ptr, ptr %6, align 8, !tbaa !56
  store ptr %26, ptr @Extra_UtilMMoutOfMemory, align 8, !tbaa !56
  %27 = load ptr, ptr %7, align 8, !tbaa !83
  %28 = icmp eq ptr %27, null
  br i1 %28, label %29, label %138

29:                                               ; preds = %19
  %30 = load ptr, ptr %3, align 8, !tbaa !62
  %31 = getelementptr inbounds nuw %struct.DdHashTable, ptr %30, i32 0, i32 9
  %32 = load ptr, ptr %31, align 8, !tbaa !68
  %33 = getelementptr inbounds nuw %struct.DdManager, ptr %32, i32 0, i32 49
  %34 = load ptr, ptr %33, align 8, !tbaa !97
  %35 = icmp ne ptr %34, null
  br i1 %35, label %36, label %125

36:                                               ; preds = %29
  %37 = load ptr, ptr %3, align 8, !tbaa !62
  %38 = getelementptr inbounds nuw %struct.DdHashTable, ptr %37, i32 0, i32 9
  %39 = load ptr, ptr %38, align 8, !tbaa !68
  %40 = getelementptr inbounds nuw %struct.DdManager, ptr %39, i32 0, i32 49
  %41 = load ptr, ptr %40, align 8, !tbaa !97
  %42 = icmp ne ptr %41, null
  br i1 %42, label %43, label %53

43:                                               ; preds = %36
  %44 = load ptr, ptr %3, align 8, !tbaa !62
  %45 = getelementptr inbounds nuw %struct.DdHashTable, ptr %44, i32 0, i32 9
  %46 = load ptr, ptr %45, align 8, !tbaa !68
  %47 = getelementptr inbounds nuw %struct.DdManager, ptr %46, i32 0, i32 49
  %48 = load ptr, ptr %47, align 8, !tbaa !97
  call void @free(ptr noundef %48) #10
  %49 = load ptr, ptr %3, align 8, !tbaa !62
  %50 = getelementptr inbounds nuw %struct.DdHashTable, ptr %49, i32 0, i32 9
  %51 = load ptr, ptr %50, align 8, !tbaa !68
  %52 = getelementptr inbounds nuw %struct.DdManager, ptr %51, i32 0, i32 49
  store ptr null, ptr %52, align 8, !tbaa !97
  br label %54

53:                                               ; preds = %36
  br label %54

54:                                               ; preds = %53, %43
  %55 = load ptr, ptr %3, align 8, !tbaa !62
  %56 = getelementptr inbounds nuw %struct.DdHashTable, ptr %55, i32 0, i32 9
  %57 = load ptr, ptr %56, align 8, !tbaa !68
  %58 = getelementptr inbounds nuw %struct.DdManager, ptr %57, i32 0, i32 49
  store ptr null, ptr %58, align 8, !tbaa !97
  %59 = load ptr, ptr %3, align 8, !tbaa !62
  %60 = getelementptr inbounds nuw %struct.DdHashTable, ptr %59, i32 0, i32 9
  %61 = load ptr, ptr %60, align 8, !tbaa !68
  %62 = getelementptr inbounds nuw %struct.DdManager, ptr %61, i32 0, i32 8
  %63 = load i32, ptr %62, align 8, !tbaa !98
  %64 = sub i32 %63, 1
  %65 = load ptr, ptr %3, align 8, !tbaa !62
  %66 = getelementptr inbounds nuw %struct.DdHashTable, ptr %65, i32 0, i32 9
  %67 = load ptr, ptr %66, align 8, !tbaa !68
  %68 = getelementptr inbounds nuw %struct.DdManager, ptr %67, i32 0, i32 14
  store i32 %64, ptr %68, align 4, !tbaa !99
  %69 = load ptr, ptr %3, align 8, !tbaa !62
  %70 = getelementptr inbounds nuw %struct.DdHashTable, ptr %69, i32 0, i32 9
  %71 = load ptr, ptr %70, align 8, !tbaa !68
  %72 = getelementptr inbounds nuw %struct.DdManager, ptr %71, i32 0, i32 8
  %73 = load i32, ptr %72, align 8, !tbaa !98
  %74 = add i32 %73, 1
  %75 = sub nsw i32 0, %74
  %76 = load ptr, ptr %3, align 8, !tbaa !62
  %77 = getelementptr inbounds nuw %struct.DdHashTable, ptr %76, i32 0, i32 9
  %78 = load ptr, ptr %77, align 8, !tbaa !68
  %79 = getelementptr inbounds nuw %struct.DdManager, ptr %78, i32 0, i32 13
  store i32 %75, ptr %79, align 8, !tbaa !100
  store i32 0, ptr %4, align 4, !tbaa !8
  br label %80

80:                                               ; preds = %100, %54
  %81 = load i32, ptr %4, align 4, !tbaa !8
  %82 = load ptr, ptr %3, align 8, !tbaa !62
  %83 = getelementptr inbounds nuw %struct.DdHashTable, ptr %82, i32 0, i32 9
  %84 = load ptr, ptr %83, align 8, !tbaa !68
  %85 = getelementptr inbounds nuw %struct.DdManager, ptr %84, i32 0, i32 15
  %86 = load i32, ptr %85, align 8, !tbaa !101
  %87 = icmp slt i32 %81, %86
  br i1 %87, label %88, label %103

88:                                               ; preds = %80
  %89 = load ptr, ptr %3, align 8, !tbaa !62
  %90 = getelementptr inbounds nuw %struct.DdHashTable, ptr %89, i32 0, i32 9
  %91 = load ptr, ptr %90, align 8, !tbaa !68
  %92 = getelementptr inbounds nuw %struct.DdManager, ptr %91, i32 0, i32 19
  %93 = load ptr, ptr %92, align 8, !tbaa !102
  %94 = load i32, ptr %4, align 4, !tbaa !8
  %95 = sext i32 %94 to i64
  %96 = getelementptr inbounds %struct.DdSubtable, ptr %93, i64 %95
  %97 = getelementptr inbounds nuw %struct.DdSubtable, ptr %96, i32 0, i32 4
  %98 = load i32, ptr %97, align 4, !tbaa !103
  %99 = shl i32 %98, 2
  store i32 %99, ptr %97, align 4, !tbaa !103
  br label %100

100:                                              ; preds = %88
  %101 = load i32, ptr %4, align 4, !tbaa !8
  %102 = add nsw i32 %101, 1
  store i32 %102, ptr %4, align 4, !tbaa !8
  br label %80, !llvm.loop !104

103:                                              ; preds = %80
  %104 = load ptr, ptr %3, align 8, !tbaa !62
  %105 = getelementptr inbounds nuw %struct.DdHashTable, ptr %104, i32 0, i32 9
  %106 = load ptr, ptr %105, align 8, !tbaa !68
  %107 = getelementptr inbounds nuw %struct.DdManager, ptr %106, i32 0, i32 29
  store double 2.000000e-01, ptr %107, align 8, !tbaa !105
  %108 = load ptr, ptr %3, align 8, !tbaa !62
  %109 = getelementptr inbounds nuw %struct.DdHashTable, ptr %108, i32 0, i32 9
  %110 = load ptr, ptr %109, align 8, !tbaa !68
  %111 = getelementptr inbounds nuw %struct.DdManager, ptr %110, i32 0, i32 22
  %112 = load i32, ptr %111, align 8, !tbaa !33
  %113 = uitofp i32 %112 to double
  %114 = fmul double 2.000000e-01, %113
  %115 = fptoui double %114 to i32
  %116 = load ptr, ptr %3, align 8, !tbaa !62
  %117 = getelementptr inbounds nuw %struct.DdHashTable, ptr %116, i32 0, i32 9
  %118 = load ptr, ptr %117, align 8, !tbaa !68
  %119 = getelementptr inbounds nuw %struct.DdManager, ptr %118, i32 0, i32 28
  store i32 %115, ptr %119, align 8, !tbaa !106
  %120 = load i32, ptr %5, align 4, !tbaa !8
  %121 = mul i32 1023, %120
  %122 = zext i32 %121 to i64
  %123 = mul i64 1, %122
  %124 = call noalias ptr @malloc(i64 noundef %123) #11
  store ptr %124, ptr %7, align 8, !tbaa !83
  br label %125

125:                                              ; preds = %103, %29
  %126 = load ptr, ptr %7, align 8, !tbaa !83
  %127 = icmp eq ptr %126, null
  br i1 %127, label %128, label %137

128:                                              ; preds = %125
  %129 = load ptr, ptr @Extra_UtilMMoutOfMemory, align 8, !tbaa !56
  %130 = load i32, ptr %5, align 4, !tbaa !8
  %131 = mul i32 1023, %130
  %132 = zext i32 %131 to i64
  call void %129(i64 noundef %132)
  %133 = load ptr, ptr %3, align 8, !tbaa !62
  %134 = getelementptr inbounds nuw %struct.DdHashTable, ptr %133, i32 0, i32 9
  %135 = load ptr, ptr %134, align 8, !tbaa !68
  %136 = getelementptr inbounds nuw %struct.DdManager, ptr %135, i32 0, i32 86
  store i32 1, ptr %136, align 8, !tbaa !12
  store ptr null, ptr %2, align 8
  store i32 1, ptr %11, align 4
  br label %182

137:                                              ; preds = %125
  br label %138

138:                                              ; preds = %137, %19
  %139 = load ptr, ptr %3, align 8, !tbaa !62
  %140 = getelementptr inbounds nuw %struct.DdHashTable, ptr %139, i32 0, i32 4
  %141 = load ptr, ptr %140, align 8, !tbaa !69
  %142 = load ptr, ptr %7, align 8, !tbaa !83
  %143 = getelementptr inbounds ptr, ptr %142, i64 0
  store ptr %141, ptr %143, align 8, !tbaa !77
  %144 = load ptr, ptr %7, align 8, !tbaa !83
  %145 = load ptr, ptr %3, align 8, !tbaa !62
  %146 = getelementptr inbounds nuw %struct.DdHashTable, ptr %145, i32 0, i32 4
  store ptr %144, ptr %146, align 8, !tbaa !69
  %147 = load ptr, ptr %7, align 8, !tbaa !83
  %148 = load i32, ptr %5, align 4, !tbaa !8
  %149 = zext i32 %148 to i64
  %150 = getelementptr inbounds nuw i8, ptr %147, i64 %149
  store ptr %150, ptr %8, align 8, !tbaa !77
  %151 = load ptr, ptr %8, align 8, !tbaa !77
  %152 = load ptr, ptr %3, align 8, !tbaa !62
  %153 = getelementptr inbounds nuw %struct.DdHashTable, ptr %152, i32 0, i32 3
  store ptr %151, ptr %153, align 8, !tbaa !70
  store i32 1, ptr %4, align 4, !tbaa !8
  br label %154

154:                                              ; preds = %166, %138
  %155 = load i32, ptr %4, align 4, !tbaa !8
  %156 = icmp slt i32 %155, 1022
  br i1 %156, label %157, label %169

157:                                              ; preds = %154
  %158 = load ptr, ptr %8, align 8, !tbaa !77
  %159 = load i32, ptr %5, align 4, !tbaa !8
  %160 = zext i32 %159 to i64
  %161 = getelementptr inbounds nuw i8, ptr %158, i64 %160
  store ptr %161, ptr %9, align 8, !tbaa !77
  %162 = load ptr, ptr %9, align 8, !tbaa !77
  %163 = load ptr, ptr %8, align 8, !tbaa !77
  %164 = getelementptr inbounds nuw %struct.DdHashItem, ptr %163, i32 0, i32 0
  store ptr %162, ptr %164, align 8, !tbaa !80
  %165 = load ptr, ptr %9, align 8, !tbaa !77
  store ptr %165, ptr %8, align 8, !tbaa !77
  br label %166

166:                                              ; preds = %157
  %167 = load i32, ptr %4, align 4, !tbaa !8
  %168 = add nsw i32 %167, 1
  store i32 %168, ptr %4, align 4, !tbaa !8
  br label %154, !llvm.loop !107

169:                                              ; preds = %154
  %170 = load ptr, ptr %8, align 8, !tbaa !77
  %171 = getelementptr inbounds nuw %struct.DdHashItem, ptr %170, i32 0, i32 0
  store ptr null, ptr %171, align 8, !tbaa !80
  br label %172

172:                                              ; preds = %169, %1
  %173 = load ptr, ptr %3, align 8, !tbaa !62
  %174 = getelementptr inbounds nuw %struct.DdHashTable, ptr %173, i32 0, i32 3
  %175 = load ptr, ptr %174, align 8, !tbaa !70
  store ptr %175, ptr %10, align 8, !tbaa !77
  %176 = load ptr, ptr %10, align 8, !tbaa !77
  %177 = getelementptr inbounds nuw %struct.DdHashItem, ptr %176, i32 0, i32 0
  %178 = load ptr, ptr %177, align 8, !tbaa !80
  %179 = load ptr, ptr %3, align 8, !tbaa !62
  %180 = getelementptr inbounds nuw %struct.DdHashTable, ptr %179, i32 0, i32 3
  store ptr %178, ptr %180, align 8, !tbaa !70
  %181 = load ptr, ptr %10, align 8, !tbaa !77
  store ptr %181, ptr %2, align 8
  store i32 1, ptr %11, align 4
  br label %182

182:                                              ; preds = %172, %128
  call void @llvm.lifetime.end.p0(i64 8, ptr %10) #10
  call void @llvm.lifetime.end.p0(i64 8, ptr %9) #10
  call void @llvm.lifetime.end.p0(i64 8, ptr %8) #10
  call void @llvm.lifetime.end.p0(i64 8, ptr %7) #10
  call void @llvm.lifetime.end.p0(i64 8, ptr %6) #10
  call void @llvm.lifetime.end.p0(i64 4, ptr %5) #10
  call void @llvm.lifetime.end.p0(i64 4, ptr %4) #10
  %183 = load ptr, ptr %2, align 8
  ret ptr %183
}